; Function Attrs: nounwind uwtable
define internal range(i32 -1, 1) i32 @H5C__trace_write_unprotect_entry_log_msg(ptr noundef readonly captures(none) %0, i64 noundef %1, i32 noundef %2, i32 noundef %3, i32 noundef %4) #0 {
  %6 = load i8, ptr @H5C_init_g, align 1, !tbaa !3, !range !7, !noundef !8
  %7 = trunc nuw i8 %6 to i1
  %8 = load i8, ptr @H5_libterm_g, align 1, !range !7
  %9 = trunc nuw i8 %8 to i1
  %10 = xor i1 %9, true
  %11 = select i1 %7, i1 true, i1 %10
  br i1 %11, label %12, label %H5C__trace_write_log_message.exit.thread, !prof !9

12:                                               ; preds = %5
  %13 = getelementptr inbounds nuw i8, ptr %0, i64 8
  %14 = load ptr, ptr %13, align 8, !tbaa !15
  %15 = tail call i32 (ptr, i64, ptr, ...) @snprintf(ptr noundef nonnull dereferenceable(1) %14, i64 noundef 4096, ptr noundef nonnull @.str.26, i64 noundef %1, i32 noundef %2, i32 noundef %3, i32 noundef %4) #8
  %16 = load i8, ptr @H5C_init_g, align 1, !tbaa !3, !range !7, !noundef !8
  %17 = trunc nuw i8 %16 to i1
  %18 = load i8, ptr @H5_libterm_g, align 1, !range !7
  %19 = trunc nuw i8 %18 to i1
  %20 = xor i1 %19, true
  %21 = select i1 %17, i1 true, i1 %20
  br i1 %21, label %22, label %H5C__trace_write_log_message.exit.thread, !prof !9

22:                                               ; preds = %12
  %23 = load ptr, ptr %13, align 8, !tbaa !15
  %24 = tail call i64 @strlen(ptr noundef nonnull dereferenceable(1) %23) #9
  %25 = trunc i64 %24 to i32
  %26 = load ptr, ptr %0, align 8, !tbaa !21
  %27 = tail call i32 (ptr, ptr, ...) @fprintf(ptr noundef %26, ptr noundef nonnull @.str.3, ptr noundef nonnull %23) #8
  %.not.i = icmp eq i32 %27, %25
  br i1 %.not.i, label %28, label %30

28:                                               ; preds = %22
  %29 = load ptr, ptr %13, align 8, !tbaa !15
  tail call void @llvm.memset.p0.i64(ptr align 1 %29, i8 0, i64 %24, i1 false)
  br label %H5C__trace_write_log_message.exit.thread

30:                                               ; preds = %22
  %31 = load i64, ptr @H5E_CACHE_g, align 8, !tbaa !19
  %32 = load i64, ptr @H5E_LOGGING_g, align 8, !tbaa !19
  %33 = tail call i32 (ptr, ptr, i32, i64, i64, ptr, ...) @H5E_printf_stack(ptr noundef nonnull @.str, ptr noundef nonnull @__func__.H5C__trace_write_log_message, i32 noundef 168, i64 noundef %31, i64 noundef %32, ptr noundef nonnull @.str.12) #8
  %34 = load i64, ptr @H5E_CACHE_g, align 8, !tbaa !19
  %35 = load i64, ptr @H5E_LOGGING_g, align 8, !tbaa !19
  %36 = tail call i32 (ptr, ptr, i32, i64, i64, ptr, ...) @H5E_printf_stack(ptr noundef nonnull @.str, ptr noundef nonnull @__func__.H5C__trace_write_unprotect_entry_log_msg, i32 noundef 823, i64 noundef %34, i64 noundef %35, ptr noundef nonnull @.str.11) #8
  br label %H5C__trace_write_log_message.exit.thread

H5C__trace_write_log_message.exit.thread:         ; preds = %12, %28, %30, %5
  %.0 = phi i32 [ -1, %30 ], [ 0, %5 ], [ 0, %28 ], [ 0, %12 ]
  ret i32 %.0
}